; ModuleID = '36/73.c'
source_filename = "36/73.c"
target datalayout = "e-m:e-p270:32:32-p271:32:32-p272:64:64-i64:64-f80:128-n8:16:32:64-S128"
target triple = "x86_64-pc-linux-gnu"

@.str = private unnamed_addr constant [3 x i8] c"%s\00", align 1
@.str.1 = private unnamed_addr constant [4 x i8] c"NO\0A\00", align 1
@.str.2 = private unnamed_addr constant [5 x i8] c"YES\0A\00", align 1

; Function Attrs: noinline nounwind uwtable
define dso_local void @main() #0 {
  %1 = alloca i32, align 4
  %2 = alloca i32, align 4
  %3 = alloca i32, align 4
  %4 = alloca i32, align 4
  %5 = alloca [20 x i8], align 16
  %6 = alloca [20 x i8], align 16
  %7 = alloca i8*, align 8
  %8 = alloca i8*, align 8
  %9 = alloca i32, align 4
  %10 = alloca i32, align 4
  store i32 0, i32* %1, align 4
  store i32 0, i32* %4, align 4
  %11 = call i32 (i8*, ...) @__isoc99_scanf(i8* getelementptr inbounds ([3 x i8], [3 x i8]* @.str, i64 0, i64 0), [20 x i8]* %5)
  %12 = call i32 (i8*, ...) @__isoc99_scanf(i8* getelementptr inbounds ([3 x i8], [3 x i8]* @.str, i64 0, i64 0), [20 x i8]* %6)
  %13 = getelementptr inbounds [20 x i8], [20 x i8]* %5, i64 0, i64 0
  store i8* %13, i8** %7, align 8
  %14 = getelementptr inbounds [20 x i8], [20 x i8]* %6, i64 0, i64 0
  store i8* %14, i8** %8, align 8
  %15 = getelementptr inbounds [20 x i8], [20 x i8]* %5, i64 0, i64 0
  %16 = call i64 @strlen(i8* %15) #3
  %17 = trunc i64 %16 to i32
  store i32 %17, i32* %9, align 4
  %18 = getelementptr inbounds [20 x i8], [20 x i8]* %6, i64 0, i64 0
  %19 = call i64 @strlen(i8* %18) #3
  %20 = trunc i64 %19 to i32
  store i32 %20, i32* %10, align 4
  %21 = load i32, i32* %9, align 4
  %22 = load i32, i32* %10, align 4
  %23 = icmp ne i32 %21, %22
  br i1 %23, label %24, label %26

24:                                               ; preds = %0
  %25 = call i32 (i8*, ...) @printf(i8* getelementptr inbounds ([4 x i8], [4 x i8]* @.str.1, i64 0, i64 0))
  br label %71

26:                                               ; preds = %0
  store i32 0, i32* %2, align 4
  br label %27

27:                                               ; preds = %58, %26
  %28 = load i32, i32* %2, align 4
  %29 = load i32, i32* %9, align 4
  %30 = icmp slt i32 %28, %29
  br i1 %30, label %31, label %63

31:                                               ; preds = %27
  store i32 0, i32* %3, align 4
  br label %32

32:                                               ; preds = %46, %31
  %33 = load i32, i32* %3, align 4
  %34 = load i32, i32* %9, align 4
  %35 = icmp slt i32 %33, %34
  br i1 %35, label %36, label %51

36:                                               ; preds = %32
  %37 = load i8*, i8** %7, align 8
  %38 = load i8, i8* %37, align 1
  %39 = sext i8 %38 to i32
  %40 = load i8*, i8** %8, align 8
  %41 = load i8, i8* %40, align 1
  %42 = sext i8 %41 to i32
  %43 = icmp eq i32 %39, %42
  br i1 %43, label %44, label %45

44:                                               ; preds = %36
  store i32 1, i32* %4, align 4
  br label %45

45:                                               ; preds = %44, %36
  br label %46

46:                                               ; preds = %45
  %47 = load i32, i32* %3, align 4
  %48 = add nsw i32 %47, 1
  store i32 %48, i32* %3, align 4
  %49 = load i8*, i8** %8, align 8
  %50 = getelementptr inbounds i8, i8* %49, i32 1
  store i8* %50, i8** %8, align 8
  br label %32

51:                                               ; preds = %32
  %52 = load i32, i32* %4, align 4
  %53 = icmp eq i32 %52, 0
  br i1 %53, label %54, label %55

54:                                               ; preds = %51
  store i32 0, i32* %1, align 4
  br label %56

55:                                               ; preds = %51
  store i32 1, i32* %1, align 4
  br label %56

56:                                               ; preds = %55, %54
  %57 = getelementptr inbounds [20 x i8], [20 x i8]* %6, i64 0, i64 0
  store i8* %57, i8** %8, align 8
  br label %58

58:                                               ; preds = %56
  %59 = load i32, i32* %2, align 4
  %60 = add nsw i32 %59, 1
  store i32 %60, i32* %2, align 4
  %61 = load i8*, i8** %7, align 8
  %62 = getelementptr inbounds i8, i8* %61, i32 1
  store i8* %62, i8** %7, align 8
  br label %27

63:                                               ; preds = %27
  %64 = load i32, i32* %1, align 4
  %65 = icmp eq i32 %64, 0
  br i1 %65, label %66, label %68

66:                                               ; preds = %63
  %67 = call i32 (i8*, ...) @printf(i8* getelementptr inbounds ([4 x i8], [4 x i8]* @.str.1, i64 0, i64 0))
  br label %70

68:                                               ; preds = %63
  %69 = call i32 (i8*, ...) @printf(i8* getelementptr inbounds ([5 x i8], [5 x i8]* @.str.2, i64 0, i64 0))
  br label %70

70:                                               ; preds = %68, %66
  br label %71

71:                                               ; preds = %70, %24
  ret void
}

declare dso_local i32 @__isoc99_scanf(i8*, ...) #1

; Function Attrs: nounwind readonly
declare dso_local i64 @strlen(i8*) #2

declare dso_local i32 @printf(i8*, ...) #1


!llvm.module.flags = !{!0}
!llvm.ident = !{!1}

!0 = !{i32 1, !"wchar_size", i32 4}
!1 = !{!"clang version 10.0.0-4ubuntu1 "}
